; ModuleID = 'source-C-CXX/30/1667.c'
source_filename = "source-C-CXX/30/1667.c"
target datalayout = "e-m:e-p270:32:32-p271:32:32-p272:64:64-i64:64-f80:128-n8:16:32:64-S128"
target triple = "x86_64-pc-linux-gnu"

%struct.student = type { [10 x i8], [20 x i8], [2 x i8], i32, [10 x i32], [10 x i8], %struct.student* }

@.str = private unnamed_addr constant [18 x i8] c"%s %s %s %d %s %s\00", align 1
@n = dso_local local_unnamed_addr global i32 0, align 4
@.str.1 = private unnamed_addr constant [3 x i8] c"%s\00", align 1
@.str.2 = private unnamed_addr constant [4 x i8] c"end\00", align 1
@.str.3 = private unnamed_addr constant [15 x i8] c"%s %s %d %s %s\00", align 1
@.str.4 = private unnamed_addr constant [19 x i8] c"%s %s %s %d %s %s\0A\00", align 1

; Function Attrs: nofree nounwind sspstrong uwtable
define dso_local %struct.student* @creat() local_unnamed_addr #0 {
  %1 = tail call noalias align 16 dereferenceable_or_null(100) i8* @malloc(i64 100) #4
  %2 = bitcast i8* %1 to %struct.student*
  %3 = getelementptr inbounds %struct.student, %struct.student* %2, i64 0, i32 0, i64 0
  %4 = getelementptr inbounds %struct.student, %struct.student* %2, i64 0, i32 1, i64 0
  %5 = getelementptr inbounds %struct.student, %struct.student* %2, i64 0, i32 2, i64 0
  %6 = getelementptr inbounds %struct.student, %struct.student* %2, i64 0, i32 3
  %7 = getelementptr inbounds %struct.student, %struct.student* %2, i64 0, i32 4, i64 0
  %8 = getelementptr inbounds %struct.student, %struct.student* %2, i64 0, i32 5, i64 0
  %9 = tail call i32 (i8*, ...) @__isoc99_scanf(i8* getelementptr inbounds ([18 x i8], [18 x i8]* @.str, i64 0, i64 0), i8* %3, i8* nonnull %4, i8* nonnull %5, i32* nonnull %6, i32* nonnull %7, i8* nonnull %8)
  %10 = getelementptr inbounds %struct.student, %struct.student* %2, i64 0, i32 6
  store %struct.student* null, %struct.student** %10, align 8, !tbaa !5
  store i32 1, i32* @n, align 4, !tbaa !11
  %11 = tail call noalias align 16 dereferenceable_or_null(100) i8* @malloc(i64 100) #4
  %12 = bitcast i8* %11 to %struct.student*
  %13 = getelementptr inbounds %struct.student, %struct.student* %12, i64 0, i32 0, i64 0
  %14 = tail call i32 (i8*, ...) @__isoc99_scanf(i8* getelementptr inbounds ([3 x i8], [3 x i8]* @.str.1, i64 0, i64 0), i8* %13)
  %15 = tail call i32 @strcmp(i8* noundef nonnull dereferenceable(1) %13, i8* noundef nonnull dereferenceable(4) getelementptr inbounds ([4 x i8], [4 x i8]* @.str.2, i64 0, i64 0)) #5
  %16 = icmp eq i32 %15, 0
  br i1 %16, label %38, label %17

17:                                               ; preds = %0, %17
  %18 = phi %struct.student* [ %33, %17 ], [ %12, %0 ]
  %19 = phi i8* [ %32, %17 ], [ %11, %0 ]
  %20 = phi %struct.student* [ %18, %17 ], [ %2, %0 ]
  %21 = getelementptr inbounds %struct.student, %struct.student* %18, i64 0, i32 1, i64 0
  %22 = getelementptr inbounds %struct.student, %struct.student* %18, i64 0, i32 2, i64 0
  %23 = getelementptr inbounds %struct.student, %struct.student* %18, i64 0, i32 3
  %24 = getelementptr inbounds %struct.student, %struct.student* %18, i64 0, i32 4, i64 0
  %25 = getelementptr inbounds %struct.student, %struct.student* %18, i64 0, i32 5, i64 0
  %26 = tail call i32 (i8*, ...) @__isoc99_scanf(i8* getelementptr inbounds ([15 x i8], [15 x i8]* @.str.3, i64 0, i64 0), i8* nonnull %21, i8* nonnull %22, i32* nonnull %23, i32* nonnull %24, i8* nonnull %25)
  %27 = getelementptr inbounds %struct.student, %struct.student* %18, i64 0, i32 6
  store %struct.student* null, %struct.student** %27, align 8, !tbaa !5
  %28 = getelementptr inbounds %struct.student, %struct.student* %20, i64 0, i32 6
  %29 = bitcast %struct.student** %28 to i8**
  store i8* %19, i8** %29, align 8, !tbaa !5
  %30 = load i32, i32* @n, align 4, !tbaa !11
  %31 = add nsw i32 %30, 1
  store i32 %31, i32* @n, align 4, !tbaa !11
  %32 = tail call noalias align 16 dereferenceable_or_null(100) i8* @malloc(i64 100) #4
  %33 = bitcast i8* %32 to %struct.student*
  %34 = getelementptr inbounds %struct.student, %struct.student* %33, i64 0, i32 0, i64 0
  %35 = tail call i32 (i8*, ...) @__isoc99_scanf(i8* getelementptr inbounds ([3 x i8], [3 x i8]* @.str.1, i64 0, i64 0), i8* %34)
  %36 = tail call i32 @strcmp(i8* noundef nonnull dereferenceable(1) %34, i8* noundef nonnull dereferenceable(4) getelementptr inbounds ([4 x i8], [4 x i8]* @.str.2, i64 0, i64 0)) #5
  %37 = icmp eq i32 %36, 0
  br i1 %37, label %38, label %17

38:                                               ; preds = %17, %0
  ret %struct.student* %2
}

; Function Attrs: inaccessiblememonly mustprogress nofree nounwind willreturn
declare noalias noundef align 16 i8* @malloc(i64 noundef) local_unnamed_addr #1

; Function Attrs: nofree nounwind
declare noundef i32 @__isoc99_scanf(i8* nocapture noundef readonly, ...) local_unnamed_addr #2

; Function Attrs: argmemonly mustprogress nofree nounwind readonly willreturn
declare i32 @strcmp(i8* nocapture, i8* nocapture) local_unnamed_addr #3

; Function Attrs: nofree nounwind sspstrong uwtable
define dso_local void @main() local_unnamed_addr #0 {
  %1 = tail call %struct.student* @creat()
  %2 = load i32, i32* @n, align 4, !tbaa !11
  %3 = icmp eq i32 %2, 0
  br i1 %3, label %25, label %4

4:                                                ; preds = %8, %0
  %5 = phi %struct.student* [ %1, %0 ], [ %11, %8 ]
  %6 = phi %struct.student* [ undef, %0 ], [ %9, %8 ]
  %7 = getelementptr inbounds %struct.student, %struct.student* %6, i64 0, i32 6
  br label %8

8:                                                ; preds = %4, %13
  %9 = phi %struct.student* [ %1, %13 ], [ %5, %4 ]
  %10 = getelementptr inbounds %struct.student, %struct.student* %9, i64 0, i32 6
  %11 = load %struct.student*, %struct.student** %10, align 8, !tbaa !5
  %12 = icmp eq %struct.student* %11, null
  br i1 %12, label %13, label %4, !llvm.loop !12

13:                                               ; preds = %8
  %14 = getelementptr inbounds %struct.student, %struct.student* %9, i64 0, i32 0, i64 0
  %15 = getelementptr inbounds %struct.student, %struct.student* %9, i64 0, i32 1, i64 0
  %16 = getelementptr inbounds %struct.student, %struct.student* %9, i64 0, i32 2, i64 0
  %17 = getelementptr inbounds %struct.student, %struct.student* %9, i64 0, i32 3
  %18 = load i32, i32* %17, align 8, !tbaa !14
  %19 = getelementptr inbounds %struct.student, %struct.student* %9, i64 0, i32 4, i64 0
  %20 = getelementptr inbounds %struct.student, %struct.student* %9, i64 0, i32 5, i64 0
  %21 = tail call i32 (i8*, ...) @printf(i8* nonnull dereferenceable(1) getelementptr inbounds ([19 x i8], [19 x i8]* @.str.4, i64 0, i64 0), i8* %14, i8* nonnull %15, i8* nonnull %16, i32 %18, i32* nonnull %19, i8* nonnull %20)
  %22 = load i32, i32* @n, align 4, !tbaa !11
  %23 = add nsw i32 %22, -1
  store i32 %23, i32* @n, align 4, !tbaa !11
  store %struct.student* null, %struct.student** %7, align 8, !tbaa !5
  %24 = icmp eq i32 %23, 0
  br i1 %24, label %25, label %8, !llvm.loop !15

25:                                               ; preds = %13, %0
  ret void
}

; Function Attrs: nofree nounwind
declare noundef i32 @printf(i8* nocapture noundef readonly, ...) local_unnamed_addr #2


!llvm.module.flags = !{!0, !1, !2, !3}
!llvm.ident = !{!4}

!0 = !{i32 1, !"wchar_size", i32 4}
!1 = !{i32 7, !"PIC Level", i32 2}
!2 = !{i32 7, !"PIE Level", i32 2}
!3 = !{i32 7, !"uwtable", i32 1}
!4 = !{!"clang version 13.0.0"}
!5 = !{!6, !10, i64 88}
!6 = !{!"student", !7, i64 0, !7, i64 10, !7, i64 30, !9, i64 32, !7, i64 36, !7, i64 76, !10, i64 88}
!7 = !{!"omnipotent char", !8, i64 0}
!8 = !{!"Simple C/C++ TBAA"}
!9 = !{!"int", !7, i64 0}
!10 = !{!"any pointer", !7, i64 0}
!11 = !{!9, !9, i64 0}
!12 = distinct !{!12, !13}
!13 = !{!"llvm.loop.mustprogress"}
!14 = !{!6, !9, i64 32}
!15 = distinct !{!15, !13}
